target datalayout = "e-m:e-p270:32:32-p271:32:32-p272:64:64-i64:64-i128:128-f80:128-n8:16:32:64-S128"
target triple = "x86_64-pc-linux-gnu"

@crc_table = global [256 x i32] zeroinitializer, align 16

; Function Attrs: nounwind uwtable
define void @crc32_init() #0 {
  %1 = alloca i32, align 4
  %2 = alloca i32, align 4
  %3 = alloca i32, align 4
  call void @llvm.lifetime.start.p0(i64 4, ptr %1) #11
  call void @llvm.lifetime.start.p0(i64 4, ptr %2) #11
  call void @llvm.lifetime.start.p0(i64 4, ptr %3) #11
  store i32 0, ptr %1, align 4, !tbaa !8
  br label %4

4:                                                ; preds = %28, %0
  %5 = load i32, ptr %1, align 4, !tbaa !8
  %6 = icmp slt i32 %5, 256
  br i1 %6, label %7, label %31

7:                                                ; preds = %4
  %8 = load i32, ptr %1, align 4, !tbaa !8
  %9 = shl i32 %8, 24
  store i32 %9, ptr %3, align 4, !tbaa !8
  store i32 0, ptr %2, align 4, !tbaa !8
  br label %10

10:                                               ; preds = %20, %7
  %11 = load i32, ptr %2, align 4, !tbaa !8
  %12 = icmp slt i32 %11, 8
  br i1 %12, label %13, label %23

13:                                               ; preds = %10
  %14 = load i32, ptr %3, align 4, !tbaa !8
  %15 = shl i32 %14, 1
  %16 = load i32, ptr %3, align 4, !tbaa !8
  %17 = icmp uge i32 %16, -2147483648
  %18 = select i1 %17, i32 79764919, i32 0
  %19 = xor i32 %15, %18
  store i32 %19, ptr %3, align 4, !tbaa !8
  br label %20

20:                                               ; preds = %13
  %21 = load i32, ptr %2, align 4, !tbaa !8
  %22 = add nsw i32 %21, 1
  store i32 %22, ptr %2, align 4, !tbaa !8
  br label %10, !llvm.loop !26

23:                                               ; preds = %10
  %24 = load i32, ptr %3, align 4, !tbaa !8
  %25 = load i32, ptr %1, align 4, !tbaa !8
  %26 = sext i32 %25 to i64
  %27 = getelementptr inbounds [256 x i32], ptr @crc_table, i64 0, i64 %26
  store i32 %24, ptr %27, align 4, !tbaa !8
  br label %28

28:                                               ; preds = %23
  %29 = load i32, ptr %1, align 4, !tbaa !8
  %30 = add nsw i32 %29, 1
  store i32 %30, ptr %1, align 4, !tbaa !8
  br label %4, !llvm.loop !27

31:                                               ; preds = %4
  call void @llvm.lifetime.end.p0(i64 4, ptr %3) #11
  call void @llvm.lifetime.end.p0(i64 4, ptr %2) #11
  call void @llvm.lifetime.end.p0(i64 4, ptr %1) #11
  ret void
}