; Function Attrs: nofree norecurse nosync nounwind memory(write, argmem: none, inaccessiblemem: none) uwtable
define void @crc32_init() local_unnamed_addr #7 {
  br label %1

1:                                                ; preds = %0, %9
  %indvars.iv = phi i64 [ 0, %0 ], [ %indvars.iv.next, %9 ]
  %indvars.iv.tr = trunc i64 %indvars.iv to i32
  %2 = shl i32 %indvars.iv.tr, 24
  br label %3

3:                                                ; preds = %1, %3
  %.012 = phi i32 [ %2, %1 ], [ %7, %3 ]
  %.0911 = phi i32 [ 0, %1 ], [ %8, %3 ]
  %4 = shl i32 %.012, 1
  %5 = icmp slt i32 %.012, 0
  %6 = select i1 %5, i32 79764919, i32 0
  %7 = xor i32 %6, %4
  %8 = add nuw nsw i32 %.0911, 1
  %exitcond.not = icmp eq i32 %8, 8
  br i1 %exitcond.not, label %9, label %3, !llvm.loop !20

9:                                                ; preds = %3
  %10 = getelementptr inbounds nuw [256 x i32], ptr @crc_table, i64 0, i64 %indvars.iv
  store i32 %7, ptr %10, align 4, !tbaa !21
  %indvars.iv.next = add nuw nsw i64 %indvars.iv, 1
  %exitcond15.not = icmp eq i64 %indvars.iv.next, 256
  br i1 %exitcond15.not, label %11, label %1, !llvm.loop !22

11:                                               ; preds = %9
  ret void
}